
main.elf:     file format elf32-avr

Sections:
Idx Name          Size      VMA       LMA       File off  Algn
  0 .text         0000047c  00000000  00000000  00000094  2**1
                  CONTENTS, ALLOC, LOAD, READONLY, CODE
  1 .data         00000020  00800060  0000047c  00000510  2**0
                  CONTENTS, ALLOC, LOAD, DATA
  2 .bss          0000000b  00800080  00800080  00000530  2**0
                  ALLOC
  3 .stab         000006b4  00000000  00000000  00000530  2**2
                  CONTENTS, READONLY, DEBUGGING
  4 .stabstr      00000054  00000000  00000000  00000be4  2**0
                  CONTENTS, READONLY, DEBUGGING

Disassembly of section .text:

00000000 <__vectors>:
   0:	12 c0       	rjmp	.+36     	; 0x26 <__ctors_end>
   2:	2a c0       	rjmp	.+84     	; 0x58 <__bad_interrupt>
   4:	29 c0       	rjmp	.+82     	; 0x58 <__bad_interrupt>
   6:	28 c0       	rjmp	.+80     	; 0x58 <__bad_interrupt>
   8:	27 c0       	rjmp	.+78     	; 0x58 <__bad_interrupt>
   a:	26 c0       	rjmp	.+76     	; 0x58 <__bad_interrupt>
   c:	c3 c0       	rjmp	.+390    	; 0x194 <__vector_6>
   e:	24 c0       	rjmp	.+72     	; 0x58 <__bad_interrupt>
  10:	23 c0       	rjmp	.+70     	; 0x58 <__bad_interrupt>
  12:	22 c0       	rjmp	.+68     	; 0x58 <__bad_interrupt>
  14:	21 c0       	rjmp	.+66     	; 0x58 <__bad_interrupt>
  16:	20 c0       	rjmp	.+64     	; 0x58 <__bad_interrupt>
  18:	1f c0       	rjmp	.+62     	; 0x58 <__bad_interrupt>
  1a:	1e c0       	rjmp	.+60     	; 0x58 <__bad_interrupt>
  1c:	1d c0       	rjmp	.+58     	; 0x58 <__bad_interrupt>
  1e:	1c c0       	rjmp	.+56     	; 0x58 <__bad_interrupt>
  20:	1b c0       	rjmp	.+54     	; 0x58 <__bad_interrupt>
  22:	1a c0       	rjmp	.+52     	; 0x58 <__bad_interrupt>
  24:	19 c0       	rjmp	.+50     	; 0x58 <__bad_interrupt>

00000026 <__ctors_end>:
  26:	11 24       	eor	r1, r1
  28:	1f be       	out	0x3f, r1	; 63
  2a:	cf ed       	ldi	r28, 0xDF	; 223
  2c:	cd bf       	out	0x3d, r28	; 61

0000002e <__do_copy_data>:
  2e:	10 e0       	ldi	r17, 0x00	; 0
  30:	a0 e6       	ldi	r26, 0x60	; 96
  32:	b0 e0       	ldi	r27, 0x00	; 0
  34:	ec e7       	ldi	r30, 0x7C	; 124
  36:	f4 e0       	ldi	r31, 0x04	; 4
  38:	02 c0       	rjmp	.+4      	; 0x3e <__SP_H__>
  3a:	05 90       	lpm	r0, Z+
  3c:	0d 92       	st	X+, r0
  3e:	a0 38       	cpi	r26, 0x80	; 128
  40:	b1 07       	cpc	r27, r17
  42:	d9 f7       	brne	.-10     	; 0x3a <__CCP__+0x6>

00000044 <__do_clear_bss>:
  44:	10 e0       	ldi	r17, 0x00	; 0
  46:	a0 e8       	ldi	r26, 0x80	; 128
  48:	b0 e0       	ldi	r27, 0x00	; 0
  4a:	01 c0       	rjmp	.+2      	; 0x4e <.do_clear_bss_start>

0000004c <.do_clear_bss_loop>:
  4c:	1d 92       	st	X+, r1

0000004e <.do_clear_bss_start>:
  4e:	ab 38       	cpi	r26, 0x8B	; 139
  50:	b1 07       	cpc	r27, r17
  52:	e1 f7       	brne	.-8      	; 0x4c <.do_clear_bss_loop>
  54:	56 d1       	rcall	.+684    	; 0x302 <main>
  56:	10 c2       	rjmp	.+1056   	; 0x478 <_exit>

00000058 <__bad_interrupt>:
  58:	d3 cf       	rjmp	.-90     	; 0x0 <__vectors>

0000005a <stopNow>:
  5a:	d8 98       	cbi	0x1b, 0	; 27
  5c:	d9 98       	cbi	0x1b, 1	; 27
  5e:	93 98       	cbi	0x12, 3	; 18
  60:	92 98       	cbi	0x12, 2	; 18
  62:	95 98       	cbi	0x12, 5	; 18
  64:	c2 98       	cbi	0x18, 2	; 24
  66:	08 95       	ret

00000068 <main_init>:
  68:	81 e0       	ldi	r24, 0x01	; 1
  6a:	83 bf       	out	0x33, r24	; 51
  6c:	82 e0       	ldi	r24, 0x02	; 2
  6e:	89 bf       	out	0x39, r24	; 57
  70:	d1 9a       	sbi	0x1a, 1	; 26
  72:	d0 9a       	sbi	0x1a, 0	; 26
  74:	8a 9a       	sbi	0x11, 2	; 17
  76:	8b 9a       	sbi	0x11, 3	; 17
  78:	8d 9a       	sbi	0x11, 5	; 17
  7a:	ba 9a       	sbi	0x17, 2	; 23
  7c:	ee df       	rcall	.-36     	; 0x5a <stopNow>
  7e:	88 9a       	sbi	0x11, 0	; 17
  80:	90 98       	cbi	0x12, 0	; 18
  82:	08 95       	ret

00000084 <forward>:
  84:	d8 98       	cbi	0x1b, 0	; 27
  86:	d9 9a       	sbi	0x1b, 1	; 27
  88:	93 98       	cbi	0x12, 3	; 18
  8a:	92 9a       	sbi	0x12, 2	; 18
  8c:	95 9a       	sbi	0x12, 5	; 18
  8e:	c2 9a       	sbi	0x18, 2	; 24
  90:	08 95       	ret

00000092 <backward>:
  92:	d8 9a       	sbi	0x1b, 0	; 27
  94:	d9 98       	cbi	0x1b, 1	; 27
  96:	93 9a       	sbi	0x12, 3	; 18
  98:	92 98       	cbi	0x12, 2	; 18
  9a:	95 9a       	sbi	0x12, 5	; 18
  9c:	c2 9a       	sbi	0x18, 2	; 24
  9e:	08 95       	ret

000000a0 <turnLeft>:
  a0:	d8 98       	cbi	0x1b, 0	; 27
  a2:	d9 9a       	sbi	0x1b, 1	; 27
  a4:	93 98       	cbi	0x12, 3	; 18
  a6:	92 98       	cbi	0x12, 2	; 18
  a8:	95 9a       	sbi	0x12, 5	; 18
  aa:	c2 9a       	sbi	0x18, 2	; 24
  ac:	08 95       	ret

000000ae <turnRight>:
  ae:	d8 98       	cbi	0x1b, 0	; 27
  b0:	d9 98       	cbi	0x1b, 1	; 27
  b2:	93 98       	cbi	0x12, 3	; 18
  b4:	92 9a       	sbi	0x12, 2	; 18
  b6:	95 9a       	sbi	0x12, 5	; 18
  b8:	c2 9a       	sbi	0x18, 2	; 24
  ba:	08 95       	ret

000000bc <spinLeft>:
  bc:	d8 98       	cbi	0x1b, 0	; 27
  be:	d9 9a       	sbi	0x1b, 1	; 27
  c0:	93 9a       	sbi	0x12, 3	; 18
  c2:	92 98       	cbi	0x12, 2	; 18
  c4:	95 9a       	sbi	0x12, 5	; 18
  c6:	c2 9a       	sbi	0x18, 2	; 24
  c8:	08 95       	ret

000000ca <spinRight>:
  ca:	d8 9a       	sbi	0x1b, 0	; 27
  cc:	d9 98       	cbi	0x1b, 1	; 27
  ce:	93 98       	cbi	0x12, 3	; 18
  d0:	92 9a       	sbi	0x12, 2	; 18
  d2:	95 9a       	sbi	0x12, 5	; 18
  d4:	c2 9a       	sbi	0x18, 2	; 24
  d6:	08 95       	ret

000000d8 <actionLogic>:
  d8:	8c 31       	cpi	r24, 0x1C	; 28
  da:	91 05       	cpc	r25, r1
  dc:	09 f4       	brne	.+2      	; 0xe0 <__stack+0x1>
  de:	4e c0       	rjmp	.+156    	; 0x17c <__stack+0x9d>
  e0:	8d 31       	cpi	r24, 0x1D	; 29
  e2:	91 05       	cpc	r25, r1
  e4:	cc f4       	brge	.+50     	; 0x118 <__stack+0x39>
  e6:	83 30       	cpi	r24, 0x03	; 3
  e8:	91 05       	cpc	r25, r1
  ea:	09 f4       	brne	.+2      	; 0xee <__stack+0xf>
  ec:	3f c0       	rjmp	.+126    	; 0x16c <__stack+0x8d>
  ee:	84 30       	cpi	r24, 0x04	; 4
  f0:	91 05       	cpc	r25, r1
  f2:	44 f4       	brge	.+16     	; 0x104 <__stack+0x25>
  f4:	81 30       	cpi	r24, 0x01	; 1
  f6:	91 05       	cpc	r25, r1
  f8:	49 f1       	breq	.+82     	; 0x14c <__stack+0x6d>
  fa:	82 30       	cpi	r24, 0x02	; 2
  fc:	91 05       	cpc	r25, r1
  fe:	09 f0       	breq	.+2      	; 0x102 <__stack+0x23>
 100:	48 c0       	rjmp	.+144    	; 0x192 <__stack+0xb3>
 102:	32 c0       	rjmp	.+100    	; 0x168 <__stack+0x89>
 104:	85 30       	cpi	r24, 0x05	; 5
 106:	91 05       	cpc	r25, r1
 108:	a9 f1       	breq	.+106    	; 0x174 <__stack+0x95>
 10a:	85 30       	cpi	r24, 0x05	; 5
 10c:	91 05       	cpc	r25, r1
 10e:	84 f1       	brlt	.+96     	; 0x170 <__stack+0x91>
 110:	89 30       	cpi	r24, 0x09	; 9
 112:	91 05       	cpc	r25, r1
 114:	f1 f5       	brne	.+124    	; 0x192 <__stack+0xb3>
 116:	34 c0       	rjmp	.+104    	; 0x180 <__stack+0xa1>
 118:	85 33       	cpi	r24, 0x35	; 53
 11a:	91 05       	cpc	r25, r1
 11c:	29 f1       	breq	.+74     	; 0x168 <__stack+0x89>
 11e:	86 33       	cpi	r24, 0x36	; 54
 120:	91 05       	cpc	r25, r1
 122:	54 f4       	brge	.+20     	; 0x138 <__stack+0x59>
 124:	82 33       	cpi	r24, 0x32	; 50
 126:	91 05       	cpc	r25, r1
 128:	19 f1       	breq	.+70     	; 0x170 <__stack+0x91>
 12a:	84 33       	cpi	r24, 0x34	; 52
 12c:	91 05       	cpc	r25, r1
 12e:	11 f1       	breq	.+68     	; 0x174 <__stack+0x95>
 130:	89 32       	cpi	r24, 0x29	; 41
 132:	91 05       	cpc	r25, r1
 134:	71 f5       	brne	.+92     	; 0x192 <__stack+0xb3>
 136:	1a c0       	rjmp	.+52     	; 0x16c <__stack+0x8d>
 138:	87 33       	cpi	r24, 0x37	; 55
 13a:	91 05       	cpc	r25, r1
 13c:	b9 f0       	breq	.+46     	; 0x16c <__stack+0x8d>
 13e:	87 33       	cpi	r24, 0x37	; 55
 140:	91 05       	cpc	r25, r1
 142:	24 f0       	brlt	.+8      	; 0x14c <__stack+0x6d>
 144:	8a 33       	cpi	r24, 0x3A	; 58
 146:	91 05       	cpc	r25, r1
 148:	21 f5       	brne	.+72     	; 0x192 <__stack+0xb3>
 14a:	16 c0       	rjmp	.+44     	; 0x178 <__stack+0x99>
 14c:	86 df       	rcall	.-244    	; 0x5a <stopNow>
 14e:	10 92 83 00 	sts	0x0083, r1
 152:	10 92 82 00 	sts	0x0082, r1
 156:	10 92 87 00 	sts	0x0087, r1
 15a:	10 92 86 00 	sts	0x0086, r1
 15e:	10 92 85 00 	sts	0x0085, r1
 162:	10 92 84 00 	sts	0x0084, r1
 166:	08 95       	ret
 168:	8d df       	rcall	.-230    	; 0x84 <forward>
 16a:	08 95       	ret
 16c:	92 df       	rcall	.-220    	; 0x92 <backward>
 16e:	08 95       	ret
 170:	97 df       	rcall	.-210    	; 0xa0 <turnLeft>
 172:	08 95       	ret
 174:	9c df       	rcall	.-200    	; 0xae <turnRight>
 176:	08 95       	ret
 178:	a1 df       	rcall	.-190    	; 0xbc <spinLeft>
 17a:	08 95       	ret
 17c:	a6 df       	rcall	.-180    	; 0xca <spinRight>
 17e:	08 95       	ret
 180:	80 91 82 00 	lds	r24, 0x0082
 184:	90 91 83 00 	lds	r25, 0x0083
 188:	09 96       	adiw	r24, 0x09	; 9
 18a:	90 93 83 00 	sts	0x0083, r25
 18e:	80 93 82 00 	sts	0x0082, r24
 192:	08 95       	ret

00000194 <__vector_6>:
 194:	1f 92       	push	r1
 196:	0f 92       	push	r0
 198:	0f b6       	in	r0, 0x3f	; 63
 19a:	0f 92       	push	r0
 19c:	11 24       	eor	r1, r1
 19e:	8f 93       	push	r24
 1a0:	80 91 8a 00 	lds	r24, 0x008A
 1a4:	8f 5f       	subi	r24, 0xFF	; 255
 1a6:	80 93 8a 00 	sts	0x008A, r24
 1aa:	80 91 88 00 	lds	r24, 0x0088
 1ae:	8f 5f       	subi	r24, 0xFF	; 255
 1b0:	80 93 88 00 	sts	0x0088, r24
 1b4:	80 91 88 00 	lds	r24, 0x0088
 1b8:	88 23       	and	r24, r24
 1ba:	29 f4       	brne	.+10     	; 0x1c6 <__vector_6+0x32>
 1bc:	80 91 89 00 	lds	r24, 0x0089
 1c0:	8f 5f       	subi	r24, 0xFF	; 255
 1c2:	80 93 89 00 	sts	0x0089, r24
 1c6:	8f 91       	pop	r24
 1c8:	0f 90       	pop	r0
 1ca:	0f be       	out	0x3f, r0	; 63
 1cc:	0f 90       	pop	r0
 1ce:	1f 90       	pop	r1
 1d0:	18 95       	reti

000001d2 <detect>:
 1d2:	10 92 88 00 	sts	0x0088, r1
 1d6:	10 92 89 00 	sts	0x0089, r1
 1da:	e0 91 80 00 	lds	r30, 0x0080
 1de:	f0 91 81 00 	lds	r31, 0x0081
 1e2:	ee 0f       	add	r30, r30
 1e4:	ff 1f       	adc	r31, r31
 1e6:	e0 5a       	subi	r30, 0xA0	; 160
 1e8:	ff 4f       	sbci	r31, 0xFF	; 255
 1ea:	10 92 8a 00 	sts	0x008A, r1
 1ee:	0f c0       	rjmp	.+30     	; 0x20e <detect+0x3c>
 1f0:	80 91 89 00 	lds	r24, 0x0089
 1f4:	89 30       	cpi	r24, 0x09	; 9
 1f6:	08 f0       	brcs	.+2      	; 0x1fa <detect+0x28>
 1f8:	80 c0       	rjmp	.+256    	; 0x2fa <detect+0x128>
 1fa:	80 b3       	in	r24, 0x10	; 16
 1fc:	90 e0       	ldi	r25, 0x00	; 0
 1fe:	00 80       	ld	r0, Z
 200:	02 c0       	rjmp	.+4      	; 0x206 <detect+0x34>
 202:	95 95       	asr	r25
 204:	87 95       	ror	r24
 206:	0a 94       	dec	r0
 208:	e2 f7       	brpl	.-8      	; 0x202 <detect+0x30>
 20a:	80 ff       	sbrs	r24, 0
 20c:	ee cf       	rjmp	.-36     	; 0x1ea <detect+0x18>
 20e:	80 91 8a 00 	lds	r24, 0x008A
 212:	87 33       	cpi	r24, 0x37	; 55
 214:	68 f3       	brcs	.-38     	; 0x1f0 <detect+0x1e>
 216:	e0 91 80 00 	lds	r30, 0x0080
 21a:	f0 91 81 00 	lds	r31, 0x0081
 21e:	ee 0f       	add	r30, r30
 220:	ff 1f       	adc	r31, r31
 222:	e0 5a       	subi	r30, 0xA0	; 160
 224:	ff 4f       	sbci	r31, 0xFF	; 255
 226:	81 e0       	ldi	r24, 0x01	; 1
 228:	90 e0       	ldi	r25, 0x00	; 0
 22a:	00 80       	ld	r0, Z
 22c:	02 c0       	rjmp	.+4      	; 0x232 <detect+0x60>
 22e:	88 0f       	add	r24, r24
 230:	99 1f       	adc	r25, r25
 232:	0a 94       	dec	r0
 234:	e2 f7       	brpl	.-8      	; 0x22e <detect+0x5c>
 236:	05 c0       	rjmp	.+10     	; 0x242 <detect+0x70>
 238:	20 91 89 00 	lds	r18, 0x0089
 23c:	28 30       	cpi	r18, 0x08	; 8
 23e:	08 f0       	brcs	.+2      	; 0x242 <detect+0x70>
 240:	5c c0       	rjmp	.+184    	; 0x2fa <detect+0x128>
 242:	20 b3       	in	r18, 0x10	; 16
 244:	30 e0       	ldi	r19, 0x00	; 0
 246:	28 23       	and	r18, r24
 248:	39 23       	and	r19, r25
 24a:	21 15       	cp	r18, r1
 24c:	31 05       	cpc	r19, r1
 24e:	a1 f7       	brne	.-24     	; 0x238 <detect+0x66>
 250:	10 92 8a 00 	sts	0x008A, r1
 254:	05 c0       	rjmp	.+10     	; 0x260 <detect+0x8e>
 256:	20 91 8a 00 	lds	r18, 0x008A
 25a:	21 31       	cpi	r18, 0x11	; 17
 25c:	08 f0       	brcs	.+2      	; 0x260 <detect+0x8e>
 25e:	4d c0       	rjmp	.+154    	; 0x2fa <detect+0x128>
 260:	20 b3       	in	r18, 0x10	; 16
 262:	30 e0       	ldi	r19, 0x00	; 0
 264:	28 23       	and	r18, r24
 266:	39 23       	and	r19, r25
 268:	21 15       	cp	r18, r1
 26a:	31 05       	cpc	r19, r1
 26c:	a1 f3       	breq	.-24     	; 0x256 <detect+0x84>
 26e:	60 91 8a 00 	lds	r22, 0x008A
 272:	10 92 8a 00 	sts	0x008A, r1
 276:	26 2f       	mov	r18, r22
 278:	26 95       	lsr	r18
 27a:	e2 2f       	mov	r30, r18
 27c:	e6 0f       	add	r30, r22
 27e:	66 0f       	add	r22, r22
 280:	66 0f       	add	r22, r22
 282:	62 0f       	add	r22, r18
 284:	04 c0       	rjmp	.+8      	; 0x28e <detect+0xbc>
 286:	20 91 8a 00 	lds	r18, 0x008A
 28a:	2e 17       	cp	r18, r30
 28c:	b0 f5       	brcc	.+108    	; 0x2fa <detect+0x128>
 28e:	20 b3       	in	r18, 0x10	; 16
 290:	30 e0       	ldi	r19, 0x00	; 0
 292:	28 23       	and	r18, r24
 294:	39 23       	and	r19, r25
 296:	21 15       	cp	r18, r1
 298:	31 05       	cpc	r19, r1
 29a:	a9 f7       	brne	.-22     	; 0x286 <detect+0xb4>
 29c:	70 e0       	ldi	r23, 0x00	; 0
 29e:	20 e0       	ldi	r18, 0x00	; 0
 2a0:	30 e0       	ldi	r19, 0x00	; 0
 2a2:	10 92 8a 00 	sts	0x008A, r1
 2a6:	40 91 8a 00 	lds	r20, 0x008A
 2aa:	4e 17       	cp	r20, r30
 2ac:	e0 f3       	brcs	.-8      	; 0x2a6 <detect+0xd4>
 2ae:	22 0f       	add	r18, r18
 2b0:	33 1f       	adc	r19, r19
 2b2:	40 b3       	in	r20, 0x10	; 16
 2b4:	50 e0       	ldi	r21, 0x00	; 0
 2b6:	48 23       	and	r20, r24
 2b8:	59 23       	and	r21, r25
 2ba:	41 15       	cp	r20, r1
 2bc:	51 05       	cpc	r21, r1
 2be:	29 f4       	brne	.+10     	; 0x2ca <detect+0xf8>
 2c0:	11 c0       	rjmp	.+34     	; 0x2e4 <detect+0x112>
 2c2:	40 91 8a 00 	lds	r20, 0x008A
 2c6:	64 17       	cp	r22, r20
 2c8:	c0 f0       	brcs	.+48     	; 0x2fa <detect+0x128>
 2ca:	40 b3       	in	r20, 0x10	; 16
 2cc:	50 e0       	ldi	r21, 0x00	; 0
 2ce:	48 23       	and	r20, r24
 2d0:	59 23       	and	r21, r25
 2d2:	41 15       	cp	r20, r1
 2d4:	51 05       	cpc	r21, r1
 2d6:	a9 f7       	brne	.-22     	; 0x2c2 <detect+0xf0>
 2d8:	21 60       	ori	r18, 0x01	; 1
 2da:	0b c0       	rjmp	.+22     	; 0x2f2 <detect+0x120>
 2dc:	40 91 8a 00 	lds	r20, 0x008A
 2e0:	64 17       	cp	r22, r20
 2e2:	58 f0       	brcs	.+22     	; 0x2fa <detect+0x128>
 2e4:	40 b3       	in	r20, 0x10	; 16
 2e6:	50 e0       	ldi	r21, 0x00	; 0
 2e8:	48 23       	and	r20, r24
 2ea:	59 23       	and	r21, r25
 2ec:	41 15       	cp	r20, r1
 2ee:	51 05       	cpc	r21, r1
 2f0:	a9 f3       	breq	.-22     	; 0x2dc <detect+0x10a>
 2f2:	7f 5f       	subi	r23, 0xFF	; 255
 2f4:	7c 30       	cpi	r23, 0x0C	; 12
 2f6:	a9 f6       	brne	.-86     	; 0x2a2 <detect+0xd0>
 2f8:	02 c0       	rjmp	.+4      	; 0x2fe <detect+0x12c>
 2fa:	2f ef       	ldi	r18, 0xFF	; 255
 2fc:	3f ef       	ldi	r19, 0xFF	; 255
 2fe:	c9 01       	movw	r24, r18
 300:	08 95       	ret

00000302 <main>:
 302:	cf 93       	push	r28
 304:	df 93       	push	r29
 306:	b0 de       	rcall	.-672    	; 0x68 <main_init>
 308:	78 94       	sei
 30a:	c0 e0       	ldi	r28, 0x00	; 0
 30c:	d0 e0       	ldi	r29, 0x00	; 0
 30e:	61 df       	rcall	.-318    	; 0x1d2 <detect>
 310:	2f ef       	ldi	r18, 0xFF	; 255
 312:	8f 3f       	cpi	r24, 0xFF	; 255
 314:	92 07       	cpc	r25, r18
 316:	81 f0       	breq	.+32     	; 0x338 <main+0x36>
 318:	9c 01       	movw	r18, r24
 31a:	e6 e0       	ldi	r30, 0x06	; 6
 31c:	36 95       	lsr	r19
 31e:	27 95       	ror	r18
 320:	ea 95       	dec	r30
 322:	e1 f7       	brne	.-8      	; 0x31c <main+0x1a>
 324:	2f 71       	andi	r18, 0x1F	; 31
 326:	22 30       	cpi	r18, 0x02	; 2
 328:	11 f0       	breq	.+4      	; 0x32e <main+0x2c>
 32a:	22 23       	and	r18, r18
 32c:	19 f4       	brne	.+6      	; 0x334 <main+0x32>
 32e:	8f 73       	andi	r24, 0x3F	; 63
 330:	90 e0       	ldi	r25, 0x00	; 0
 332:	d2 de       	rcall	.-604    	; 0xd8 <actionLogic>
 334:	90 9a       	sbi	0x12, 0	; 18
 336:	e9 cf       	rjmp	.-46     	; 0x30a <main+0x8>
 338:	c5 36       	cpi	r28, 0x65	; 101
 33a:	d1 05       	cpc	r29, r1
 33c:	14 f4       	brge	.+4      	; 0x342 <main+0x40>
 33e:	21 96       	adiw	r28, 0x01	; 1
 340:	07 c0       	rjmp	.+14     	; 0x350 <main+0x4e>
 342:	8b de       	rcall	.-746    	; 0x5a <stopNow>
 344:	10 92 83 00 	sts	0x0083, r1
 348:	10 92 82 00 	sts	0x0082, r1
 34c:	c0 e0       	ldi	r28, 0x00	; 0
 34e:	d0 e0       	ldi	r29, 0x00	; 0
 350:	90 98       	cbi	0x12, 0	; 18
 352:	80 91 82 00 	lds	r24, 0x0082
 356:	90 91 83 00 	lds	r25, 0x0083
 35a:	85 3b       	cpi	r24, 0xB5	; 181
 35c:	91 05       	cpc	r25, r1
 35e:	bc f2       	brlt	.-82     	; 0x30e <main+0xc>
 360:	e0 91 84 00 	lds	r30, 0x0084
 364:	f0 91 85 00 	lds	r31, 0x0085
 368:	ee 0f       	add	r30, r30
 36a:	ff 1f       	adc	r31, r31
 36c:	ec 59       	subi	r30, 0x9C	; 156
 36e:	ff 4f       	sbci	r31, 0xFF	; 255
 370:	80 81       	ld	r24, Z
 372:	91 81       	ldd	r25, Z+1	; 0x01
 374:	81 30       	cpi	r24, 0x01	; 1
 376:	91 05       	cpc	r25, r1
 378:	11 f4       	brne	.+4      	; 0x37e <main+0x7c>
 37a:	6f de       	rcall	.-802    	; 0x5a <stopNow>
 37c:	01 c0       	rjmp	.+2      	; 0x380 <main+0x7e>
 37e:	ac de       	rcall	.-680    	; 0xd8 <actionLogic>
 380:	80 91 86 00 	lds	r24, 0x0086
 384:	90 91 87 00 	lds	r25, 0x0087
 388:	01 96       	adiw	r24, 0x01	; 1
 38a:	90 93 87 00 	sts	0x0087, r25
 38e:	80 93 86 00 	sts	0x0086, r24
 392:	83 30       	cpi	r24, 0x03	; 3
 394:	91 05       	cpc	r25, r1
 396:	0c f4       	brge	.+2      	; 0x39a <main+0x98>
 398:	ba cf       	rjmp	.-140    	; 0x30e <main+0xc>
 39a:	10 92 87 00 	sts	0x0087, r1
 39e:	10 92 86 00 	sts	0x0086, r1
 3a2:	80 91 84 00 	lds	r24, 0x0084
 3a6:	90 91 85 00 	lds	r25, 0x0085
 3aa:	01 96       	adiw	r24, 0x01	; 1
 3ac:	90 93 85 00 	sts	0x0085, r25
 3b0:	80 93 84 00 	sts	0x0084, r24
 3b4:	8e 30       	cpi	r24, 0x0E	; 14
 3b6:	91 05       	cpc	r25, r1
 3b8:	0c f4       	brge	.+2      	; 0x3bc <main+0xba>
 3ba:	a9 cf       	rjmp	.-174    	; 0x30e <main+0xc>
 3bc:	10 92 85 00 	sts	0x0085, r1
 3c0:	10 92 84 00 	sts	0x0084, r1
 3c4:	a4 cf       	rjmp	.-184    	; 0x30e <main+0xc>

000003c6 <serial_init>:
 3c6:	9c 01       	movw	r18, r24
 3c8:	40 e0       	ldi	r20, 0x00	; 0
 3ca:	50 e0       	ldi	r21, 0x00	; 0
 3cc:	64 e0       	ldi	r22, 0x04	; 4
 3ce:	22 0f       	add	r18, r18
 3d0:	33 1f       	adc	r19, r19
 3d2:	44 1f       	adc	r20, r20
 3d4:	55 1f       	adc	r21, r21
 3d6:	6a 95       	dec	r22
 3d8:	d1 f7       	brne	.-12     	; 0x3ce <serial_init+0x8>
 3da:	60 e0       	ldi	r22, 0x00	; 0
 3dc:	79 e0       	ldi	r23, 0x09	; 9
 3de:	8d e3       	ldi	r24, 0x3D	; 61
 3e0:	90 e0       	ldi	r25, 0x00	; 0
 3e2:	28 d0       	rcall	.+80     	; 0x434 <__udivmodsi4>
 3e4:	da 01       	movw	r26, r20
 3e6:	c9 01       	movw	r24, r18
 3e8:	01 97       	sbiw	r24, 0x01	; 1
 3ea:	a1 09       	sbc	r26, r1
 3ec:	b1 09       	sbc	r27, r1
 3ee:	89 2f       	mov	r24, r25
 3f0:	9a 2f       	mov	r25, r26
 3f2:	ab 2f       	mov	r26, r27
 3f4:	bb 27       	eor	r27, r27
 3f6:	82 b9       	out	0x02, r24	; 2
 3f8:	21 50       	subi	r18, 0x01	; 1
 3fa:	29 b9       	out	0x09, r18	; 9
 3fc:	88 e9       	ldi	r24, 0x98	; 152
 3fe:	8a b9       	out	0x0a, r24	; 10
 400:	86 e0       	ldi	r24, 0x06	; 6
 402:	83 b9       	out	0x03, r24	; 3
 404:	08 95       	ret

00000406 <serial_putc>:
 406:	5d 9b       	sbis	0x0b, 5	; 11
 408:	fe cf       	rjmp	.-4      	; 0x406 <serial_putc>
 40a:	8c b9       	out	0x0c, r24	; 12
 40c:	08 95       	ret

0000040e <serial_puts>:
 40e:	ef 92       	push	r14
 410:	ff 92       	push	r15
 412:	cf 93       	push	r28
 414:	df 93       	push	r29
 416:	e8 2e       	mov	r14, r24
 418:	e7 01       	movw	r28, r14
 41a:	7e 01       	movw	r14, r28
 41c:	f9 2e       	mov	r15, r25
 41e:	e7 01       	movw	r28, r14
 420:	01 c0       	rjmp	.+2      	; 0x424 <serial_puts+0x16>
 422:	f1 df       	rcall	.-30     	; 0x406 <serial_putc>
 424:	89 91       	ld	r24, Y+
 426:	88 23       	and	r24, r24
 428:	e1 f7       	brne	.-8      	; 0x422 <serial_puts+0x14>
 42a:	df 91       	pop	r29
 42c:	cf 91       	pop	r28
 42e:	ff 90       	pop	r15
 430:	ef 90       	pop	r14
 432:	08 95       	ret

00000434 <__udivmodsi4>:
 434:	a1 e2       	ldi	r26, 0x21	; 33
 436:	1a 2e       	mov	r1, r26
 438:	aa 1b       	sub	r26, r26
 43a:	bb 1b       	sub	r27, r27
 43c:	fd 01       	movw	r30, r26
 43e:	0d c0       	rjmp	.+26     	; 0x45a <__udivmodsi4_ep>

00000440 <__udivmodsi4_loop>:
 440:	aa 1f       	adc	r26, r26
 442:	bb 1f       	adc	r27, r27
 444:	ee 1f       	adc	r30, r30
 446:	ff 1f       	adc	r31, r31
 448:	a2 17       	cp	r26, r18
 44a:	b3 07       	cpc	r27, r19
 44c:	e4 07       	cpc	r30, r20
 44e:	f5 07       	cpc	r31, r21
 450:	20 f0       	brcs	.+8      	; 0x45a <__udivmodsi4_ep>
 452:	a2 1b       	sub	r26, r18
 454:	b3 0b       	sbc	r27, r19
 456:	e4 0b       	sbc	r30, r20
 458:	f5 0b       	sbc	r31, r21

0000045a <__udivmodsi4_ep>:
 45a:	66 1f       	adc	r22, r22
 45c:	77 1f       	adc	r23, r23
 45e:	88 1f       	adc	r24, r24
 460:	99 1f       	adc	r25, r25
 462:	1a 94       	dec	r1
 464:	69 f7       	brne	.-38     	; 0x440 <__udivmodsi4_loop>
 466:	60 95       	com	r22
 468:	70 95       	com	r23
 46a:	80 95       	com	r24
 46c:	90 95       	com	r25
 46e:	9b 01       	movw	r18, r22
 470:	ac 01       	movw	r20, r24
 472:	bd 01       	movw	r22, r26
 474:	cf 01       	movw	r24, r30
 476:	08 95       	ret

00000478 <_exit>:
 478:	f8 94       	cli

0000047a <__stop_program>:
 47a:	ff cf       	rjmp	.-2      	; 0x47a <__stop_program>
